target datalayout = "e-m:e-p270:32:32-p271:32:32-p272:64:64-i64:64-i128:128-f80:128-n8:16:32:64-S128"
target triple = "x86_64-pc-linux-gnu"

%struct.job_info = type { ptr, i64, ptr, ptr, i32, ptr, i32, i32, i32, ptr, i32, ptr, i16, ptr, i64, i16, ptr, ptr, ptr, ptr, ptr, ptr, ptr, ptr, i16, i16, i16, double, i16, i32, i32, i32, ptr, ptr, i64, i32, ptr, i32, i64, i64, ptr, ptr, i32, ptr, ptr, ptr, ptr, i64, ptr, i64, ptr, i32, ptr, ptr, i32, i32, ptr, i32, i32, ptr, ptr, i32, i64, ptr, i16, ptr, i32, i32, ptr, ptr, ptr, ptr, ptr, i32, ptr, i16, i16, i16, i16, i16, i32, i32, i32, i16, ptr, ptr, i64, i16, i32, i64, i64, i64, i32, ptr, ptr, i32, ptr, i8, ptr, ptr, i32, i16, i64, i16, ptr, ptr, ptr, ptr, i16, i32, i16, i16, i64, i16, ptr, i32, ptr, ptr, ptr, i16, i64, i64, ptr, i32, i32, i16, ptr, ptr, ptr, ptr, ptr, ptr, ptr, ptr, i32, ptr, i32, ptr, ptr }
%struct.squeue_job_rec = type { i32, ptr, ptr, i32 }

@reverse_order = internal global i8 0, align 1

; Function Attrs: inlinehint nounwind uwtable
define internal i32 @_diff_uint32(i32 noundef %0, i32 noundef %1) #6 {
  %3 = alloca i32, align 4
  %4 = alloca i32, align 4
  %5 = alloca i32, align 4
  store i32 %0, ptr %4, align 4
  store i32 %1, ptr %5, align 4
  %6 = load i32, ptr %4, align 4
  %7 = load i32, ptr %5, align 4
  %8 = icmp ugt i32 %6, %7
  br i1 %8, label %9, label %10

9:                                                ; preds = %2
  store i32 1, ptr %3, align 4
  br label %16

10:                                               ; preds = %2
  %11 = load i32, ptr %4, align 4
  %12 = load i32, ptr %5, align 4
  %13 = icmp ult i32 %11, %12
  br i1 %13, label %14, label %15

14:                                               ; preds = %10
  store i32 -1, ptr %3, align 4
  br label %16

15:                                               ; preds = %10
  store i32 0, ptr %3, align 4
  br label %16

16:                                               ; preds = %15, %14, %9
  %17 = load i32, ptr %3, align 4
  ret i32 %17
}

; Function Attrs: nounwind uwtable
define internal void @_get_job_info_from_void(ptr noundef %0, ptr noundef %1, ptr noundef %2, ptr noundef %3) #0 {
  %5 = alloca ptr, align 8
  %6 = alloca ptr, align 8
  %7 = alloca ptr, align 8
  %8 = alloca ptr, align 8
  store ptr %0, ptr %5, align 8
  store ptr %1, ptr %6, align 8
  store ptr %2, ptr %7, align 8
  store ptr %3, ptr %8, align 8
  %9 = load ptr, ptr %7, align 8
  %10 = load ptr, ptr %9, align 8
  %11 = getelementptr inbounds nuw %struct.squeue_job_rec, ptr %10, i32 0, i32 1
  %12 = load ptr, ptr %11, align 8
  %13 = load ptr, ptr %5, align 8
  store ptr %12, ptr %13, align 8
  %14 = load ptr, ptr %8, align 8
  %15 = load ptr, ptr %14, align 8
  %16 = getelementptr inbounds nuw %struct.squeue_job_rec, ptr %15, i32 0, i32 1
  %17 = load ptr, ptr %16, align 8
  %18 = load ptr, ptr %6, align 8
  store ptr %17, ptr %18, align 8
  ret void
}

; Function Attrs: nounwind uwtable
define internal i32 @_sort_job_by_num_sct(ptr noundef %0, ptr noundef %1) #0 {
  %3 = alloca i32, align 4
  %4 = alloca ptr, align 8
  %5 = alloca ptr, align 8
  %6 = alloca i32, align 4
  %7 = alloca i32, align 4
  %8 = alloca i32, align 4
  %9 = alloca ptr, align 8
  %10 = alloca ptr, align 8
  %11 = alloca i32, align 4
  store ptr %0, ptr %4, align 8
  store ptr %1, ptr %5, align 8
  call void @llvm.lifetime.start.p0(i64 4, ptr %6) #8
  call void @llvm.lifetime.start.p0(i64 4, ptr %7) #8
  call void @llvm.lifetime.start.p0(i64 4, ptr %8) #8
  call void @llvm.lifetime.start.p0(i64 8, ptr %9) #8
  call void @llvm.lifetime.start.p0(i64 8, ptr %10) #8
  %12 = load ptr, ptr %4, align 8
  %13 = load ptr, ptr %5, align 8
  call void @_get_job_info_from_void(ptr noundef %9, ptr noundef %10, ptr noundef %12, ptr noundef %13)
  %14 = load ptr, ptr %9, align 8
  %15 = getelementptr inbounds nuw %struct.job_info, ptr %14, i32 0, i32 111
  %16 = load i16, ptr %15, align 2
  %17 = zext i16 %16 to i32
  %18 = load ptr, ptr %10, align 8
  %19 = getelementptr inbounds nuw %struct.job_info, ptr %18, i32 0, i32 111
  %20 = load i16, ptr %19, align 2
  %21 = zext i16 %20 to i32
  %22 = call i32 @_diff_uint32(i32 noundef %17, i32 noundef %21)
  store i32 %22, ptr %6, align 4
  %23 = load ptr, ptr %9, align 8
  %24 = getelementptr inbounds nuw %struct.job_info, ptr %23, i32 0, i32 26
  %25 = load i16, ptr %24, align 4
  %26 = zext i16 %25 to i32
  %27 = load ptr, ptr %10, align 8
  %28 = getelementptr inbounds nuw %struct.job_info, ptr %27, i32 0, i32 26
  %29 = load i16, ptr %28, align 4
  %30 = zext i16 %29 to i32
  %31 = call i32 @_diff_uint32(i32 noundef %26, i32 noundef %30)
  store i32 %31, ptr %7, align 4
  %32 = load ptr, ptr %9, align 8
  %33 = getelementptr inbounds nuw %struct.job_info, ptr %32, i32 0, i32 125
  %34 = load i16, ptr %33, align 8
  %35 = zext i16 %34 to i32
  %36 = load ptr, ptr %10, align 8
  %37 = getelementptr inbounds nuw %struct.job_info, ptr %36, i32 0, i32 125
  %38 = load i16, ptr %37, align 8
  %39 = zext i16 %38 to i32
  %40 = call i32 @_diff_uint32(i32 noundef %35, i32 noundef %39)
  store i32 %40, ptr %8, align 4
  %41 = load i8, ptr @reverse_order, align 1, !range !11, !noundef !12
  %42 = trunc i8 %41 to i1
  br i1 %42, label %43, label %50

43:                                               ; preds = %2
  %44 = load i32, ptr %6, align 4
  %45 = sub nsw i32 0, %44
  store i32 %45, ptr %6, align 4
  %46 = load i32, ptr %7, align 4
  %47 = sub nsw i32 0, %46
  store i32 %47, ptr %7, align 4
  %48 = load i32, ptr %8, align 4
  %49 = sub nsw i32 0, %48
  store i32 %49, ptr %8, align 4
  br label %50

50:                                               ; preds = %43, %2
  %51 = load i32, ptr %6, align 4
  %52 = icmp ne i32 %51, 0
  br i1 %52, label %53, label %55

53:                                               ; preds = %50
  %54 = load i32, ptr %6, align 4
  store i32 %54, ptr %3, align 4
  store i32 1, ptr %11, align 4
  br label %62

55:                                               ; preds = %50
  %56 = load i32, ptr %7, align 4
  %57 = icmp ne i32 %56, 0
  br i1 %57, label %58, label %60

58:                                               ; preds = %55
  %59 = load i32, ptr %7, align 4
  store i32 %59, ptr %3, align 4
  store i32 1, ptr %11, align 4
  br label %62

60:                                               ; preds = %55
  %61 = load i32, ptr %8, align 4
  store i32 %61, ptr %3, align 4
  store i32 1, ptr %11, align 4
  br label %62

62:                                               ; preds = %60, %58, %53
  call void @llvm.lifetime.end.p0(i64 8, ptr %10) #8
  call void @llvm.lifetime.end.p0(i64 8, ptr %9) #8
  call void @llvm.lifetime.end.p0(i64 4, ptr %8) #8
  call void @llvm.lifetime.end.p0(i64 4, ptr %7) #8
  call void @llvm.lifetime.end.p0(i64 4, ptr %6) #8
  %63 = load i32, ptr %3, align 4
  ret i32 %63
}