; Function Attrs: mustprogress nofree norecurse nosync nounwind willreturn memory(read, inaccessiblemem: none) uwtable
define internal range(i32 -1, 2) i32 @_sort_job_by_num_sct(ptr noundef readonly captures(none) %0, ptr noundef readonly captures(none) %1) #5 {
  %.val = load ptr, ptr %0, align 8
  %3 = getelementptr i8, ptr %.val, i64 8
  %.val.val = load ptr, ptr %3, align 8
  %4 = load ptr, ptr %1, align 8
  %5 = getelementptr inbounds nuw i8, ptr %4, i64 8
  %6 = load ptr, ptr %5, align 8
  %7 = getelementptr inbounds nuw i8, ptr %.val.val, i64 754
  %8 = load i16, ptr %7, align 2
  %9 = zext i16 %8 to i32
  %10 = getelementptr inbounds nuw i8, ptr %6, i64 754
  %11 = load i16, ptr %10, align 2
  %12 = zext i16 %11 to i32
  %.0.i = tail call range(i32 -1, 2) i32 @llvm.ucmp.i32.i32(i32 %9, i32 %12)
  %13 = getelementptr inbounds nuw i8, ptr %.val.val, i64 188
  %14 = load i16, ptr %13, align 4
  %15 = zext i16 %14 to i32
  %16 = getelementptr inbounds nuw i8, ptr %6, i64 188
  %17 = load i16, ptr %16, align 4
  %18 = zext i16 %17 to i32
  %.0.i15 = tail call range(i32 -1, 2) i32 @llvm.ucmp.i32.i32(i32 %15, i32 %18)
  %19 = getelementptr inbounds nuw i8, ptr %.val.val, i64 856
  %20 = load i16, ptr %19, align 8
  %21 = zext i16 %20 to i32
  %22 = getelementptr inbounds nuw i8, ptr %6, i64 856
  %23 = load i16, ptr %22, align 8
  %24 = zext i16 %23 to i32
  %.0.i16 = tail call range(i32 -1, 2) i32 @llvm.ucmp.i32.i32(i32 %21, i32 %24)
  %.b13 = load i1, ptr @reverse_order, align 1
  %25 = sub nsw i32 0, %.0.i
  %26 = sub nsw i32 0, %.0.i15
  %27 = sub nsw i32 0, %.0.i16
  %.011 = select i1 %.b13, i32 %25, i32 %.0.i
  %.010 = select i1 %.b13, i32 %26, i32 %.0.i15
  %.0 = select i1 %.b13, i32 %27, i32 %.0.i16
  %.not = icmp eq i32 %.011, 0
  %.not14 = icmp eq i32 %.010, 0
  %.0..010 = select i1 %.not14, i32 %.0, i32 %.010
  %.012 = select i1 %.not, i32 %.0..010, i32 %.011
  ret i32 %.012
}